Certificate:
    Data:
        Version: 3 (0x2)
        Serial Number:
            dd:39:30:16:60:55:90:7c
        Signature Algorithm: sha1WithRSAEncryption
        Issuer: C=US, ST=Hawaii, O=kevin1024, CN=pytest-httpbin Certificate Authority
        Validity
            Not Before: Jun 26 18:16:59 2015 GMT
            Not After : Jun 18 18:16:59 2045 GMT
        Subject: C=US, ST=Hawaii, O=kevin1024, CN=pytest-httpbin Certificate Authority
        Subject Public Key Info:
            Public Key Algorithm: rsaEncryption
            RSA Public Key: (1024 bit)
                Modulus (1024 bit):
                    00:bd:80:fd:e4:96:0e:3b:5e:35:9b:83:00:34:88:
                    64:5a:50:53:0e:1d:94:76:c9:dc:e7:b5:59:1e:d4:
                    82:55:36:a6:b4:41:2c:60:ad:76:f0:cd:42:a0:0f:
                    4a:1c:0d:d7:29:da:c3:d9:c0:ea:f1:48:e0:66:4d:
                    4b:7c:ff:d6:5e:e0:73:89:53:8b:6e:6c:57:7d:bd:
                    e9:d0:46:39:5d:85:a5:f1:3a:d4:3d:83:19:03:44:
                    93:71:2c:5e:d7:61:8e:db:cc:80:d0:f1:c0:47:bf:
                    98:8f:06:40:e1:f7:41:ee:ed:a7:57:0d:a6:4c:26:
                    75:8e:f1:78:d3:80:ad:9c:e9
                Exponent: 65537 (0x10001)
        X509v3 extensions:
            X509v3 Subject Key Identifier: 
                AE:05:EF:BD:A9:CE:BB:A6:D8:0E:EB:C4:8C:72:2F:13:E5:CD:AA:CA
            X509v3 Authority Key Identifier: 
                keyid:AE:05:EF:BD:A9:CE:BB:A6:D8:0E:EB:C4:8C:72:2F:13:E5:CD:AA:CA
                DirName:/C=US/ST=Hawaii/O=kevin1024/CN=pytest-httpbin Certificate Authority
                serial:DD:39:30:16:60:55:90:7C

            X509v3 Basic Constraints: 
                CA:TRUE
    Signature Algorithm: sha1WithRSAEncryption
        bc:0c:b4:21:03:bf:35:bf:88:9f:de:06:23:f4:e3:8f:bc:34:
        b5:8b:af:bf:31:5d:17:44:2c:72:c9:88:25:d1:c7:d0:1c:70:
        06:82:a5:fa:fa:d7:b9:16:64:c2:08:54:1e:4c:93:9f:22:4e:
        e5:4f:a7:71:e5:6e:14:31:e9:41:e2:33:23:8b:c8:01:c3:2a:
        66:a8:d8:df:ef:ee:7b:bb:84:f4:78:a6:ca:8f:29:aa:d5:fa:
        8a:73:94:0c:32:53:c8:93:bd:fc:c4:60:4d:9a:80:4f:c6:d4:
        27:44:a2:37:63:6c:97:04:ce:e3:6a:6f:d3:84:0d:b4:74:1f:
        49:eb
-----BEGIN CERTIFICATE-----
MIIDBzCCAnCgAwIBAgIJAN05MBZgVZB8MA0GCSqGSIb3DQEBBQUAMGExCzAJBgNV
BAYTAlVTMQ8wDQYDVQQIEwZIYXdhaWkxEjAQBgNVBAoTCWtldmluMTAyNDEtMCsG
A1UEAxMkcHl0ZXN0LWh0dHBiaW4gQ2VydGlmaWNhdGUgQXV0aG9yaXR5MB4XDTE1
MDYyNjE4MTY1OVoXDTQ1MDYxODE4MTY1OVowYTELMAkGA1UEBhMCVVMxDzANBgNV
BAgTBkhhd2FpaTESMBAGA1UEChMJa2V2aW4xMDI0MS0wKwYDVQQDEyRweXRlc3Qt
aHR0cGJpbiBDZXJ0aWZpY2F0ZSBBdXRob3JpdHkwgZ8wDQYJKoZIhvcNAQEBBQAD
gY0AMIGJAoGBAL2A/eSWDjteNZuDADSIZFpQUw4dlHbJ3Oe1WR7UglU2prRBLGCt
dvDNQqAPShwN1ynaw9nA6vFI4GZNS3z/1l7gc4lTi25sV3296dBGOV2FpfE61D2D
GQNEk3EsXtdhjtvMgNDxwEe/mI8GQOH3Qe7tp1cNpkwmdY7xeNOArZzpAgMBAAGj
gcYwgcMwHQYDVR0OBBYEFK4F772pzrum2A7rxIxyLxPlzarKMIGTBgNVHSMEgYsw
gYiAFK4F772pzrum2A7rxIxyLxPlzarKoWWkYzBhMQswCQYDVQQGEwJVUzEPMA0G
A1UECBMGSGF3YWlpMRIwEAYDVQQKEwlrZXZpbjEwMjQxLTArBgNVBAMTJHB5dGVz
dC1odHRwYmluIENlcnRpZmljYXRlIEF1dGhvcml0eYIJAN05MBZgVZB8MAwGA1Ud
EwQFMAMBAf8wDQYJKoZIhvcNAQEFBQADgYEAvAy0IQO/Nb+In94GI/Tjj7w0tYuv
vzFdF0QscsmIJdHH0BxwBoKl+vrXuRZkwghUHkyTnyJO5U+nceVuFDHpQeIzI4vI
AcMqZqjY3+/ue7uE9Himyo8pqtX6inOUDDJTyJO9/MRgTZqAT8bUJ0SiN2NslwTO
42pv04QNtHQfSes=
-----END CERTIFICATE-----
