Certificate:
    Data:
        Version: 3 (0x2)
        Serial Number:
            dd:39:30:16:60:55:90:7e
        Signature Algorithm: sha1WithRSAEncryption
        Issuer: C=US, ST=Hawaii, O=kevin1024, CN=pytest-httpbin Certificate Authority
        Validity
            Not Before: Jun 26 18:20:35 2015 GMT
            Not After : Jun 23 18:20:35 2025 GMT
        Subject: C=US, ST=Hawaii, O=kevin1024, OU=kevin1024, CN=127.0.0.1
        Subject Public Key Info:
            Public Key Algorithm: rsaEncryption
            RSA Public Key: (2048 bit)
                Modulus (2048 bit):
                    00:ce:b4:0f:0b:86:17:68:24:6f:7c:25:32:73:81:
                    bd:55:38:05:ae:09:29:00:c0:f1:99:30:5a:7f:05:
                    9f:e7:e9:d3:ce:d0:dd:4f:73:c8:bf:65:04:94:e5:
                    11:8e:1d:91:f0:88:85:3e:48:d3:09:5b:3f:8f:97:
                    95:34:bf:8d:00:cb:70:d2:c1:2b:34:dd:99:1d:86:
                    9b:90:54:a5:de:18:c4:03:3d:53:f0:dd:cc:6d:ec:
                    fb:b9:93:ab:19:85:05:63:2d:34:a6:47:42:71:3b:
                    e4:1e:4a:4c:d9:60:d4:6b:d6:51:a8:4a:30:70:2e:
                    6c:62:a2:34:da:cf:30:34:97:a4:9d:17:72:0b:b2:
                    37:69:e2:ca:b6:d5:9f:46:c5:eb:cf:dc:46:b0:fe:
                    ef:37:5e:4f:eb:f3:50:4d:2c:4e:c2:0c:e4:0c:63:
                    c2:d8:ab:a3:d6:a0:12:bf:d6:fc:3f:b6:4c:dc:2b:
                    9b:c5:ae:83:4d:3b:3c:19:85:50:88:82:a2:5f:ff:
                    de:98:60:fc:12:3a:55:c3:4f:0a:e9:1f:aa:12:cb:
                    f8:ce:14:d6:ed:89:ff:c7:ea:3b:fe:97:87:54:eb:
                    62:de:cd:ef:6b:e2:9e:47:82:77:55:59:4f:b8:ad:
                    1b:e0:9d:1a:28:16:9f:6a:cb:b2:44:f9:65:c3:c4:
                    03:09
                Exponent: 65537 (0x10001)
        X509v3 extensions:
            X509v3 Basic Constraints: 
                CA:FALSE
            Netscape Comment: 
                OpenSSL Generated Certificate
            X509v3 Subject Key Identifier: 
                1E:28:41:6B:12:03:41:29:64:0D:E5:C3:E3:F7:9E:82:0C:66:1E:B9
            X509v3 Authority Key Identifier: 
                keyid:AE:05:EF:BD:A9:CE:BB:A6:D8:0E:EB:C4:8C:72:2F:13:E5:CD:AA:CA

    Signature Algorithm: sha1WithRSAEncryption
        67:8c:6d:a1:2f:b3:35:87:a3:c0:04:92:5d:8a:8b:f8:51:6e:
        94:88:59:ed:66:b2:54:b0:a2:3d:7a:05:ee:19:17:a6:0b:3b:
        20:f7:d2:73:2c:f0:b9:ad:2e:5d:45:11:5d:8d:33:5c:69:7f:
        4a:c5:8c:10:3e:35:b4:39:d7:52:66:bc:02:d8:4d:d0:ba:a1:
        ae:55:f5:36:01:17:97:40:1a:9d:6a:e0:b8:33:be:2d:98:b7:
        5b:92:6a:77:a7:d9:f5:5b:a4:5f:fa:aa:5b:c1:6b:4d:0c:b7:
        5a:4c:47:b2:f7:90:a3:ff:6f:8c:fd:f2:60:38:53:29:71:48:
        d7:69
-----BEGIN CERTIFICATE-----
MIIDODCCAqGgAwIBAgIJAN05MBZgVZB+MA0GCSqGSIb3DQEBBQUAMGExCzAJBgNV
BAYTAlVTMQ8wDQYDVQQIEwZIYXdhaWkxEjAQBgNVBAoTCWtldmluMTAyNDEtMCsG
A1UEAxMkcHl0ZXN0LWh0dHBiaW4gQ2VydGlmaWNhdGUgQXV0aG9yaXR5MB4XDTE1
MDYyNjE4MjAzNVoXDTI1MDYyMzE4MjAzNVowWjELMAkGA1UEBhMCVVMxDzANBgNV
BAgTBkhhd2FpaTESMBAGA1UEChMJa2V2aW4xMDI0MRIwEAYDVQQLEwlrZXZpbjEw
MjQxEjAQBgNVBAMTCTEyNy4wLjAuMTCCASIwDQYJKoZIhvcNAQEBBQADggEPADCC
AQoCggEBAM60DwuGF2gkb3wlMnOBvVU4Ba4JKQDA8ZkwWn8Fn+fp087Q3U9zyL9l
BJTlEY4dkfCIhT5I0wlbP4+XlTS/jQDLcNLBKzTdmR2Gm5BUpd4YxAM9U/DdzG3s
+7mTqxmFBWMtNKZHQnE75B5KTNlg1GvWUahKMHAubGKiNNrPMDSXpJ0XcguyN2ni
yrbVn0bF68/cRrD+7zdeT+vzUE0sTsIM5Axjwtiro9agEr/W/D+2TNwrm8Wug007
PBmFUIiCol//3phg/BI6VcNPCukfqhLL+M4U1u2J/8fqO/6Xh1TrYt7N72vinkeC
d1VZT7itG+CdGigWn2rLskT5ZcPEAwkCAwEAAaN7MHkwCQYDVR0TBAIwADAsBglg
hkgBhvhCAQ0EHxYdT3BlblNTTCBHZW5lcmF0ZWQgQ2VydGlmaWNhdGUwHQYDVR0O
BBYEFB4oQWsSA0EpZA3lw+P3noIMZh65MB8GA1UdIwQYMBaAFK4F772pzrum2A7r
xIxyLxPlzarKMA0GCSqGSIb3DQEBBQUAA4GBAGeMbaEvszWHo8AEkl2Ki/hRbpSI
We1mslSwoj16Be4ZF6YLOyD30nMs8LmtLl1FEV2NM1xpf0rFjBA+NbQ511JmvALY
TdC6oa5V9TYBF5dAGp1q4Lgzvi2Yt1uSanen2fVbpF/6qlvBa00Mt1pMR7L3kKP/
b4z98mA4UylxSNdp
-----END CERTIFICATE-----
